; Listing generated by Microsoft (R) Optimizing Compiler Version 19.32.31332.0 

	TITLE	C:\Users\23035\Desktop\Home\C++\shellcodecore\out\core_def.obj
	.686P
	.XMM
	include listing.inc
	.model	flat

INCLUDELIB LIBCMT
INCLUDELIB OLDNAMES

PUBLIC	??0kernel@@QAE@XZ				; kernel::kernel
PUBLIC	??0msvc@@QAE@ABUkernel@@@Z			; msvc::msvc
PUBLIC	??0cabinet@@QAE@ABUkernel@@@Z			; cabinet::cabinet
EXTRN	?GetProcAddressWithHash@@YAPAXKK@Z:PROC		; GetProcAddressWithHash
; Function compile flags: /Ogspy
;	COMDAT ??0cabinet@@QAE@ABUkernel@@@Z
_TEXT	SEGMENT
_re_kernel$ = 8						; size = 4
??0cabinet@@QAE@ABUkernel@@@Z PROC			; cabinet::cabinet, COMDAT
; _this$ = ecx
; File C:\Users\23035\Desktop\Home\C++\shellcodecore\core_def.cpp
; Line 37
	push	esi
	mov	esi, ecx
	push	edi
; File C:\Users\23035\Desktop\Home\C++\shellcodecore\core_def.h
; Line 53
	lea	eax, DWORD PTR [esi+24]
	mov	DWORD PTR [esi+25], 1852400225		; 6e696261H
	mov	BYTE PTR [eax], 99			; 00000063H
; File C:\Users\23035\Desktop\Home\C++\shellcodecore\core_def.cpp
; Line 38
	push	eax
	mov	eax, DWORD PTR _re_kernel$[esp+8]
	mov	DWORD PTR [esi+29], 1680766053		; 642e7465H
	mov	WORD PTR [esi+33], 27756		; 00006c6cH
	mov	BYTE PTR [esi+35], 0
	call	DWORD PTR [eax]
; Line 39
	push	166817107				; 09f16d53H
	mov	edi, -2085978376			; 83aa7ef8H
	push	edi
	call	?GetProcAddressWithHash@@YAPAXKK@Z	; GetProcAddressWithHash
; Line 40
	push	-53237272				; fcd3a9e8H
	push	edi
	mov	DWORD PTR [esi], eax
	call	?GetProcAddressWithHash@@YAPAXKK@Z	; GetProcAddressWithHash
; Line 41
	push	816744765				; 30ae893dH
	push	edi
	mov	DWORD PTR [esi+4], eax
	call	?GetProcAddressWithHash@@YAPAXKK@Z	; GetProcAddressWithHash
; Line 42
	push	-1407540110				; ac1aa472H
	push	edi
	mov	DWORD PTR [esi+8], eax
	call	?GetProcAddressWithHash@@YAPAXKK@Z	; GetProcAddressWithHash
; Line 43
	push	307448537				; 12534ad9H
	push	edi
	mov	DWORD PTR [esi+12], eax
	call	?GetProcAddressWithHash@@YAPAXKK@Z	; GetProcAddressWithHash
; Line 44
	push	844526314				; 325672eaH
	push	edi
	mov	DWORD PTR [esi+16], eax
	call	?GetProcAddressWithHash@@YAPAXKK@Z	; GetProcAddressWithHash
	add	esp, 48					; 00000030H
	mov	DWORD PTR [esi+20], eax
; Line 45
	mov	eax, esi
	pop	edi
	pop	esi
	ret	4
??0cabinet@@QAE@ABUkernel@@@Z ENDP			; cabinet::cabinet
_TEXT	ENDS
; Function compile flags: /Ogspy
;	COMDAT ??0msvc@@QAE@ABUkernel@@@Z
_TEXT	SEGMENT
_re_kernel$ = 8						; size = 4
??0msvc@@QAE@ABUkernel@@@Z PROC				; msvc::msvc, COMDAT
; _this$ = ecx
; File C:\Users\23035\Desktop\Home\C++\shellcodecore\core_def.cpp
; Line 14
	push	esi
	mov	esi, ecx
	push	edi
; File C:\Users\23035\Desktop\Home\C++\shellcodecore\core_def.h
; Line 40
	lea	eax, DWORD PTR [esi+60]
	mov	DWORD PTR [esi+61], 1919121011		; 72637673H
	mov	BYTE PTR [eax], 109			; 0000006dH
; File C:\Users\23035\Desktop\Home\C++\shellcodecore\core_def.cpp
; Line 15
	push	eax
	mov	eax, DWORD PTR _re_kernel$[esp+8]
	mov	DWORD PTR [esi+65], 1818504820		; 6c642e74H
	mov	WORD PTR [esi+69], 108			; 0000006cH
	call	DWORD PTR [eax]
; Line 17
	push	1657199858				; 62c6dcf2H
	mov	edi, 567320927				; 21d0a15fH
	push	edi
	call	?GetProcAddressWithHash@@YAPAXKK@Z	; GetProcAddressWithHash
; Line 18
	push	-478738061				; e3770973H
	push	edi
	mov	DWORD PTR [esi+20], eax
	call	?GetProcAddressWithHash@@YAPAXKK@Z	; GetProcAddressWithHash
; Line 19
	push	-416384704				; e72e7940H
	push	edi
	mov	DWORD PTR [esi+16], eax
	call	?GetProcAddressWithHash@@YAPAXKK@Z	; GetProcAddressWithHash
; Line 20
	push	-853067661				; cd273873H
	push	edi
	mov	DWORD PTR [esi+24], eax
	call	?GetProcAddressWithHash@@YAPAXKK@Z	; GetProcAddressWithHash
; Line 21
	push	1455897916				; 56c73d3cH
	push	edi
	mov	DWORD PTR [esi+28], eax
	call	?GetProcAddressWithHash@@YAPAXKK@Z	; GetProcAddressWithHash
; Line 22
	push	-287384333				; eededcf3H
	push	edi
	mov	DWORD PTR [esi+32], eax
	call	?GetProcAddressWithHash@@YAPAXKK@Z	; GetProcAddressWithHash
; Line 24
	push	1557322737				; 5cd2dbf1H
	push	edi
	mov	DWORD PTR [esi+36], eax
	call	?GetProcAddressWithHash@@YAPAXKK@Z	; GetProcAddressWithHash
; Line 25
	push	1266871347				; 4b82ec33H
	push	edi
	mov	DWORD PTR [esi+12], eax
	call	?GetProcAddressWithHash@@YAPAXKK@Z	; GetProcAddressWithHash
	add	esp, 64					; 00000040H
	mov	DWORD PTR [esi+4], eax
; Line 26
	push	1801120115				; 6b5ae973H
	push	edi
	call	?GetProcAddressWithHash@@YAPAXKK@Z	; GetProcAddressWithHash
; Line 28
	push	-883737734				; cb533b7aH
	push	edi
	mov	DWORD PTR [esi+8], eax
	call	?GetProcAddressWithHash@@YAPAXKK@Z	; GetProcAddressWithHash
; Line 29
	push	-879018950				; cb9b3c3aH
	push	edi
	mov	DWORD PTR [esi+40], eax
	call	?GetProcAddressWithHash@@YAPAXKK@Z	; GetProcAddressWithHash
; Line 30
	push	-520701031				; e0f6bb99H
	push	edi
	mov	DWORD PTR [esi+44], eax
	call	?GetProcAddressWithHash@@YAPAXKK@Z	; GetProcAddressWithHash
; Line 31
	push	-582796934				; dd43397aH
	push	edi
	mov	DWORD PTR [esi+48], eax
	call	?GetProcAddressWithHash@@YAPAXKK@Z	; GetProcAddressWithHash
; Line 32
	push	-881641350				; cb73387aH
	push	edi
	mov	DWORD PTR [esi+52], eax
	call	?GetProcAddressWithHash@@YAPAXKK@Z	; GetProcAddressWithHash
; Line 34
	push	-520704711				; e0f6ad39H
	push	edi
	mov	DWORD PTR [esi+56], eax
	call	?GetProcAddressWithHash@@YAPAXKK@Z	; GetProcAddressWithHash
	add	esp, 56					; 00000038H
	mov	DWORD PTR [esi], eax
; Line 35
	mov	eax, esi
	pop	edi
	pop	esi
	ret	4
??0msvc@@QAE@ABUkernel@@@Z ENDP				; msvc::msvc
_TEXT	ENDS
; Function compile flags: /Ogspy
;	COMDAT ??0kernel@@QAE@XZ
_TEXT	SEGMENT
??0kernel@@QAE@XZ PROC					; kernel::kernel, COMDAT
; _this$ = ecx
; File C:\Users\23035\Desktop\Home\C++\shellcodecore\core_def.cpp
; Line 3
	push	esi
	push	edi
; Line 4
	push	-447487889				; e553e06fH
	mov	edi, -1834019110			; 92af16daH
	mov	esi, ecx
	push	edi
	call	?GetProcAddressWithHash@@YAPAXKK@Z	; GetProcAddressWithHash
; Line 5
	push	1953980530				; 74776072H
	push	edi
	mov	DWORD PTR [esi+4], eax
	call	?GetProcAddressWithHash@@YAPAXKK@Z	; GetProcAddressWithHash
; Line 6
	push	1386515838				; 52a48d7eH
	push	edi
	mov	DWORD PTR [esi], eax
	call	?GetProcAddressWithHash@@YAPAXKK@Z	; GetProcAddressWithHash
; Line 7
	push	-1654646735				; 9d601831H
	push	edi
	mov	DWORD PTR [esi+8], eax
	call	?GetProcAddressWithHash@@YAPAXKK@Z	; GetProcAddressWithHash
; Line 8
	push	-2090970786				; 835e515eH
	push	edi
	mov	DWORD PTR [esi+12], eax
	call	?GetProcAddressWithHash@@YAPAXKK@Z	; GetProcAddressWithHash
; Line 9
	push	1049838910				; 3e93453eH
	push	edi
	mov	DWORD PTR [esi+16], eax
	call	?GetProcAddressWithHash@@YAPAXKK@Z	; GetProcAddressWithHash
; Line 10
	push	1050625342				; 3e9f453eH
	push	edi
	mov	DWORD PTR [esi+24], eax
	call	?GetProcAddressWithHash@@YAPAXKK@Z	; GetProcAddressWithHash
; Line 11
	push	-62590383				; fc44f251H
	push	edi
	mov	DWORD PTR [esi+20], eax
	call	?GetProcAddressWithHash@@YAPAXKK@Z	; GetProcAddressWithHash
	add	esp, 64					; 00000040H
	mov	DWORD PTR [esi+28], eax
; Line 12
	mov	eax, esi
	pop	edi
	pop	esi
	ret	0
??0kernel@@QAE@XZ ENDP					; kernel::kernel
_TEXT	ENDS
END
