; Listing generated by Microsoft (R) Optimizing Compiler Version 19.32.31332.0 

	TITLE	C:\Users\23035\Desktop\Home\C++\shellcodecore\out\main.obj
	.686P
	.XMM
	include listing.inc
	.model	flat

INCLUDELIB LIBCMT
INCLUDELIB OLDNAMES

PUBLIC	??0workspace@@QAE@AAUmsvc@@@Z			; workspace::workspace
PUBLIC	??1workspace@@QAE@XZ				; workspace::~workspace
PUBLIC	_entry
EXTRN	??0kernel@@QAE@XZ:PROC				; kernel::kernel
EXTRN	??0msvc@@QAE@ABUkernel@@@Z:PROC			; msvc::msvc
EXTRN	??0cabinet@@QAE@ABUkernel@@@Z:PROC		; cabinet::cabinet
EXTRN	??0logstream@@QAE@AAUmsvc@@PBD@Z:PROC		; logstream::logstream
EXTRN	??1logstream@@QAE@XZ:PROC			; logstream::~logstream
EXTRN	?flush@logstream@@QAEXXZ:PROC			; logstream::flush
EXTRN	??6logstream@@QAEAAU0@H@Z:PROC			; logstream::operator<<
EXTRN	??6logstream@@QAEAAU0@PBD@Z:PROC		; logstream::operator<<
; Function compile flags: /Ogspy
;	COMDAT _entry
_TEXT	SEGMENT
_logstream$ = -1308					; size = 1044
_msvc$ = -264						; size = 76
_workspace$ = -188					; size = 84
_kernel$ = -104						; size = 48
_cabinet$ = -56						; size = 36
_address_proc$ = -20					; size = 4
_buffer_decompressed$ = -16				; size = 4
_hand_decompressor$ = -12				; size = 4
_image_base$ = -8					; size = 4
_size_decompressor$ = -4				; size = 4
_entry	PROC						; COMDAT
; File C:\Users\23035\Desktop\Home\C++\AddShell\shellcode\main.cpp
; Line 261
	push	ebp
	mov	ebp, esp
	sub	esp, 1308				; 0000051cH
	push	ebx
	push	esi
	push	edi
; Line 298
	lea	ecx, DWORD PTR _kernel$[ebp]
	call	??0kernel@@QAE@XZ			; kernel::kernel
; Line 299
	lea	eax, DWORD PTR _kernel$[ebp]
	push	eax
	lea	ecx, DWORD PTR _msvc$[ebp]
	call	??0msvc@@QAE@ABUkernel@@@Z		; msvc::msvc
; Line 300
	lea	eax, DWORD PTR _kernel$[ebp]
	push	eax
	lea	ecx, DWORD PTR _cabinet$[ebp]
	call	??0cabinet@@QAE@ABUkernel@@@Z		; cabinet::cabinet
; Line 301
	lea	eax, DWORD PTR _msvc$[ebp]
	push	eax
	lea	ecx, DWORD PTR _workspace$[ebp]
	call	??0workspace@@QAE@AAUmsvc@@@Z		; workspace::workspace
; Line 302
	mov	eax, DWORD PTR _workspace$[ebp+40]
	lea	ecx, DWORD PTR _logstream$[ebp]
	push	DWORD PTR [eax]
	lea	eax, DWORD PTR _msvc$[ebp]
	push	eax
	call	??0logstream@@QAE@AAUmsvc@@PBD@Z	; logstream::logstream
; Line 303
	mov	eax, DWORD PTR _workspace$[ebp+44]
	lea	ecx, DWORD PTR _logstream$[ebp]
	push	DWORD PTR [eax]
	call	??6logstream@@QAEAAU0@PBD@Z		; logstream::operator<<
; Line 308
	push	ebx
; Line 309
	mov	ebx, DWORD PTR fs:48
; Line 310
	mov	ebx, DWORD PTR [ebx+8]
; Line 311
	mov	DWORD PTR _image_base$[ebp], ebx
; Line 312
	pop	ebx
; Line 316
	mov	eax, DWORD PTR _image_base$[ebp]
	mov	edi, DWORD PTR [eax+60]
	add	edi, eax
; Line 320
	lea	eax, DWORD PTR _hand_decompressor$[ebp]
	push	eax
	push	0
	push	2
	movzx	esi, WORD PTR [edi+20]
	call	DWORD PTR _cabinet$[ebp+4]
; Line 322
	lea	eax, DWORD PTR _size_decompressor$[ebp]
	push	eax
	mov	eax, DWORD PTR [esi+edi+76]
	add	eax, DWORD PTR _image_base$[ebp]
	push	0
	push	0
	push	DWORD PTR [esi+edi+88]
	push	eax
	push	DWORD PTR _hand_decompressor$[ebp]
	call	DWORD PTR _cabinet$[ebp+20]
; Line 327
	push	DWORD PTR _size_decompressor$[ebp]
	call	DWORD PTR _msvc$[ebp+12]
	pop	ecx
; Line 330
	mov	ecx, DWORD PTR _workspace$[ebp+76]
	mov	DWORD PTR _buffer_decompressed$[ebp], eax
	mov	DWORD PTR [ecx], eax
; Line 332
	lea	ecx, DWORD PTR _size_decompressor$[ebp]
	push	ecx
	push	DWORD PTR _size_decompressor$[ebp]
	push	eax
	push	DWORD PTR [esi+edi+80]
	mov	eax, DWORD PTR [esi+edi+76]
	add	eax, DWORD PTR _image_base$[ebp]
	push	eax
	push	DWORD PTR _hand_decompressor$[ebp]
	call	DWORD PTR _cabinet$[ebp+20]
; Line 334
	mov	eax, DWORD PTR _workspace$[ebp+48]
	lea	ecx, DWORD PTR _logstream$[ebp]
	push	DWORD PTR _size_decompressor$[ebp]
	push	DWORD PTR [eax]
	call	??6logstream@@QAEAAU0@PBD@Z		; logstream::operator<<
	mov	ecx, eax
	call	??6logstream@@QAEAAU0@H@Z		; logstream::operator<<
; Line 335
	lea	ecx, DWORD PTR _logstream$[ebp]
	call	?flush@logstream@@QAEXXZ		; logstream::flush
; Line 338
	mov	eax, DWORD PTR _workspace$[ebp+60]
	push	DWORD PTR [eax]
	call	DWORD PTR _kernel$[ebp]
; Line 339
	mov	ecx, DWORD PTR _workspace$[ebp+64]
	push	DWORD PTR [ecx]
	push	eax
	call	DWORD PTR _kernel$[ebp+4]
	mov	DWORD PTR _address_proc$[ebp], eax
; Line 342
	push	eax
; Line 343
	push	DWORD PTR _size_decompressor$[ebp]
; Line 344
	push	DWORD PTR _buffer_decompressed$[ebp]
; Line 345
	mov	eax, DWORD PTR _address_proc$[ebp]
; Line 346
	call	eax
; Line 347
	pop	eax
; Line 349
	lea	ecx, DWORD PTR _logstream$[ebp]
	call	??1logstream@@QAE@XZ			; logstream::~logstream
	lea	ecx, DWORD PTR _workspace$[ebp]
	call	??1workspace@@QAE@XZ			; workspace::~workspace
; Line 350
	pop	edi
	pop	esi
	xor	eax, eax
	pop	ebx
	leave
	ret	0
_entry	ENDP
_TEXT	ENDS
; Function compile flags: /Ogspy
;	COMDAT ??1workspace@@QAE@XZ
_TEXT	SEGMENT
??1workspace@@QAE@XZ PROC				; workspace::~workspace, COMDAT
; _this$ = ecx
; File C:\Users\23035\Desktop\Home\C++\AddShell\shellcode\main.cpp
; Line 247
	push	esi
	push	edi
; Line 248
	push	10					; 0000000aH
	mov	edi, ecx
	pop	esi
$LL10@workspace:
; Line 249
	dec	esi
; Line 251
	cmp	DWORD PTR [edi+esi*4], 0
	je	SHORT $LN5@workspace
; Line 255
	mov	eax, DWORD PTR [edi+80]
	push	DWORD PTR [edi+esi*4]
	call	DWORD PTR [eax+28]
	pop	ecx
$LN5@workspace:
; Line 249
	test	esi, esi
	jne	SHORT $LL10@workspace
; Line 258
	pop	edi
	pop	esi
	ret	0
??1workspace@@QAE@XZ ENDP				; workspace::~workspace
_TEXT	ENDS
; Function compile flags: /Ogspy
;	COMDAT ??0workspace@@QAE@AAUmsvc@@@Z
_TEXT	SEGMENT
_ref$ = 8						; size = 4
??0workspace@@QAE@AAUmsvc@@@Z PROC			; workspace::workspace, COMDAT
; _this$ = ecx
; File C:\Users\23035\Desktop\Home\C++\AddShell\shellcode\main.cpp
; Line 30
	push	ebx
	push	esi
	mov	esi, ecx
; Line 32
	xor	ebx, ebx
	push	40					; 00000028H
	push	ebx
	push	esi
	lea	eax, DWORD PTR [esi+4]
	mov	DWORD PTR [esi+40], esi
	mov	DWORD PTR [esi+44], eax
	lea	eax, DWORD PTR [esi+8]
	mov	DWORD PTR [esi+48], eax
	lea	eax, DWORD PTR [esi+12]
	mov	DWORD PTR [esi+52], eax
	lea	eax, DWORD PTR [esi+16]
	mov	DWORD PTR [esi+56], eax
	lea	eax, DWORD PTR [esi+20]
	mov	DWORD PTR [esi+60], eax
	lea	eax, DWORD PTR [esi+24]
	mov	DWORD PTR [esi+64], eax
	lea	eax, DWORD PTR [esi+28]
	mov	DWORD PTR [esi+68], eax
	lea	eax, DWORD PTR [esi+32]
	mov	DWORD PTR [esi+72], eax
	lea	eax, DWORD PTR [esi+36]
	mov	DWORD PTR [esi+76], eax
	mov	eax, DWORD PTR _ref$[esp+16]
	mov	DWORD PTR [esi+80], eax
	call	DWORD PTR [eax+8]
; Line 34
	mov	eax, DWORD PTR [esi+80]
	push	31					; 0000001fH
	call	DWORD PTR [eax+12]
	mov	ecx, DWORD PTR [esi+40]
	mov	DWORD PTR [ecx], eax
; Line 35
	mov	eax, DWORD PTR [esi+40]
	mov	eax, DWORD PTR [eax]
	mov	BYTE PTR [eax], 67			; 00000043H
; Line 36
	mov	eax, DWORD PTR [esi+40]
	mov	eax, DWORD PTR [eax]
	mov	BYTE PTR [eax+1], 58			; 0000003aH
; Line 37
	mov	eax, DWORD PTR [esi+40]
	mov	eax, DWORD PTR [eax]
	mov	BYTE PTR [eax+2], 47			; 0000002fH
; Line 38
	mov	eax, DWORD PTR [esi+40]
	mov	eax, DWORD PTR [eax]
	mov	BYTE PTR [eax+3], 85			; 00000055H
; Line 39
	mov	eax, DWORD PTR [esi+40]
	mov	eax, DWORD PTR [eax]
	mov	BYTE PTR [eax+4], 115			; 00000073H
; Line 40
	mov	eax, DWORD PTR [esi+40]
	mov	eax, DWORD PTR [eax]
	mov	BYTE PTR [eax+5], 101			; 00000065H
; Line 41
	mov	eax, DWORD PTR [esi+40]
	mov	eax, DWORD PTR [eax]
	mov	BYTE PTR [eax+6], 114			; 00000072H
; Line 42
	mov	eax, DWORD PTR [esi+40]
	mov	eax, DWORD PTR [eax]
	mov	BYTE PTR [eax+7], 115			; 00000073H
; Line 43
	mov	eax, DWORD PTR [esi+40]
	mov	eax, DWORD PTR [eax]
	mov	BYTE PTR [eax+8], 47			; 0000002fH
; Line 44
	mov	eax, DWORD PTR [esi+40]
	mov	eax, DWORD PTR [eax]
	mov	BYTE PTR [eax+9], 50			; 00000032H
; Line 45
	mov	eax, DWORD PTR [esi+40]
	mov	eax, DWORD PTR [eax]
	mov	BYTE PTR [eax+10], 51			; 00000033H
; Line 46
	mov	eax, DWORD PTR [esi+40]
	mov	eax, DWORD PTR [eax]
	mov	BYTE PTR [eax+11], 48			; 00000030H
; Line 47
	mov	eax, DWORD PTR [esi+40]
	mov	eax, DWORD PTR [eax]
	mov	BYTE PTR [eax+12], 51			; 00000033H
; Line 48
	mov	eax, DWORD PTR [esi+40]
	mov	eax, DWORD PTR [eax]
	mov	BYTE PTR [eax+13], 53			; 00000035H
; Line 49
	mov	eax, DWORD PTR [esi+40]
	mov	eax, DWORD PTR [eax]
	mov	BYTE PTR [eax+14], 47			; 0000002fH
; Line 50
	mov	eax, DWORD PTR [esi+40]
	mov	eax, DWORD PTR [eax]
	mov	BYTE PTR [eax+15], 68			; 00000044H
; Line 51
	mov	eax, DWORD PTR [esi+40]
; Line 68
	push	31					; 0000001fH
	mov	eax, DWORD PTR [eax]
	mov	BYTE PTR [eax+16], 101			; 00000065H
	mov	eax, DWORD PTR [esi+40]
	mov	eax, DWORD PTR [eax]
	mov	BYTE PTR [eax+17], 115			; 00000073H
	mov	eax, DWORD PTR [esi+40]
	mov	eax, DWORD PTR [eax]
	mov	BYTE PTR [eax+18], 107			; 0000006bH
	mov	eax, DWORD PTR [esi+40]
	mov	eax, DWORD PTR [eax]
	mov	BYTE PTR [eax+19], 116			; 00000074H
	mov	eax, DWORD PTR [esi+40]
	mov	eax, DWORD PTR [eax]
	mov	BYTE PTR [eax+20], 111			; 0000006fH
	mov	eax, DWORD PTR [esi+40]
	mov	eax, DWORD PTR [eax]
	mov	BYTE PTR [eax+21], 112			; 00000070H
	mov	eax, DWORD PTR [esi+40]
	mov	eax, DWORD PTR [eax]
	mov	BYTE PTR [eax+22], 47			; 0000002fH
	mov	eax, DWORD PTR [esi+40]
	mov	eax, DWORD PTR [eax]
	mov	BYTE PTR [eax+23], 108			; 0000006cH
	mov	eax, DWORD PTR [esi+40]
	mov	eax, DWORD PTR [eax]
	mov	BYTE PTR [eax+24], 111			; 0000006fH
	mov	eax, DWORD PTR [esi+40]
	mov	eax, DWORD PTR [eax]
	mov	BYTE PTR [eax+25], 103			; 00000067H
	mov	eax, DWORD PTR [esi+40]
	mov	eax, DWORD PTR [eax]
	mov	BYTE PTR [eax+26], 46			; 0000002eH
	mov	eax, DWORD PTR [esi+40]
	mov	eax, DWORD PTR [eax]
	mov	BYTE PTR [eax+27], 116			; 00000074H
	mov	eax, DWORD PTR [esi+40]
	mov	eax, DWORD PTR [eax]
	mov	BYTE PTR [eax+28], 120			; 00000078H
	mov	eax, DWORD PTR [esi+40]
	mov	eax, DWORD PTR [eax]
	mov	BYTE PTR [eax+29], 116			; 00000074H
	mov	eax, DWORD PTR [esi+40]
	mov	eax, DWORD PTR [eax]
	mov	BYTE PTR [eax+30], bl
	mov	eax, DWORD PTR [esi+80]
	call	DWORD PTR [eax+12]
	mov	ecx, DWORD PTR [esi+44]
	mov	DWORD PTR [ecx], eax
; Line 69
	mov	eax, DWORD PTR [esi+44]
	mov	eax, DWORD PTR [eax]
	mov	BYTE PTR [eax], 73			; 00000049H
; Line 70
	mov	eax, DWORD PTR [esi+44]
	mov	eax, DWORD PTR [eax]
	mov	BYTE PTR [eax+1], 110			; 0000006eH
; Line 71
	mov	eax, DWORD PTR [esi+44]
	mov	eax, DWORD PTR [eax]
	mov	BYTE PTR [eax+2], 105			; 00000069H
; Line 72
	mov	eax, DWORD PTR [esi+44]
	mov	eax, DWORD PTR [eax]
	mov	BYTE PTR [eax+3], 116			; 00000074H
; Line 73
	mov	eax, DWORD PTR [esi+44]
	mov	eax, DWORD PTR [eax]
	mov	BYTE PTR [eax+4], 32			; 00000020H
; Line 74
	mov	eax, DWORD PTR [esi+44]
	mov	eax, DWORD PTR [eax]
	mov	BYTE PTR [eax+5], 83			; 00000053H
; Line 75
	mov	eax, DWORD PTR [esi+44]
	mov	eax, DWORD PTR [eax]
	mov	BYTE PTR [eax+6], 117			; 00000075H
; Line 76
	mov	eax, DWORD PTR [esi+44]
	mov	eax, DWORD PTR [eax]
	mov	BYTE PTR [eax+7], 99			; 00000063H
; Line 77
	mov	eax, DWORD PTR [esi+44]
	mov	eax, DWORD PTR [eax]
	mov	BYTE PTR [eax+8], 99			; 00000063H
; Line 78
	mov	eax, DWORD PTR [esi+44]
	mov	eax, DWORD PTR [eax]
	mov	BYTE PTR [eax+9], 101			; 00000065H
; Line 79
	mov	eax, DWORD PTR [esi+44]
; Line 102
	push	17					; 00000011H
	mov	eax, DWORD PTR [eax]
	mov	BYTE PTR [eax+10], 115			; 00000073H
	mov	eax, DWORD PTR [esi+44]
	mov	eax, DWORD PTR [eax]
	mov	BYTE PTR [eax+11], 115			; 00000073H
	mov	eax, DWORD PTR [esi+44]
	mov	eax, DWORD PTR [eax]
	mov	BYTE PTR [eax+12], 101			; 00000065H
	mov	eax, DWORD PTR [esi+44]
	mov	eax, DWORD PTR [eax]
	mov	BYTE PTR [eax+13], 100			; 00000064H
	mov	eax, DWORD PTR [esi+44]
	mov	eax, DWORD PTR [eax]
	mov	BYTE PTR [eax+14], 32			; 00000020H
	mov	eax, DWORD PTR [esi+44]
	mov	eax, DWORD PTR [eax]
	mov	BYTE PTR [eax+15], 119			; 00000077H
	mov	eax, DWORD PTR [esi+44]
	mov	eax, DWORD PTR [eax]
	mov	BYTE PTR [eax+16], 105			; 00000069H
	mov	eax, DWORD PTR [esi+44]
	mov	eax, DWORD PTR [eax]
	mov	BYTE PTR [eax+17], 116			; 00000074H
	mov	eax, DWORD PTR [esi+44]
	mov	eax, DWORD PTR [eax]
	mov	BYTE PTR [eax+18], 104			; 00000068H
	mov	eax, DWORD PTR [esi+44]
	mov	eax, DWORD PTR [eax]
	mov	BYTE PTR [eax+19], 32			; 00000020H
	mov	eax, DWORD PTR [esi+44]
	mov	eax, DWORD PTR [eax]
	mov	BYTE PTR [eax+20], 76			; 0000004cH
	mov	eax, DWORD PTR [esi+44]
	mov	eax, DWORD PTR [eax]
	mov	BYTE PTR [eax+21], 111			; 0000006fH
	mov	eax, DWORD PTR [esi+44]
	mov	eax, DWORD PTR [eax]
	mov	BYTE PTR [eax+22], 103			; 00000067H
	mov	eax, DWORD PTR [esi+44]
	mov	eax, DWORD PTR [eax]
	mov	BYTE PTR [eax+23], 115			; 00000073H
	mov	eax, DWORD PTR [esi+44]
	mov	eax, DWORD PTR [eax]
	mov	BYTE PTR [eax+24], 116			; 00000074H
	mov	eax, DWORD PTR [esi+44]
	mov	eax, DWORD PTR [eax]
	mov	BYTE PTR [eax+25], 114			; 00000072H
	mov	eax, DWORD PTR [esi+44]
	mov	eax, DWORD PTR [eax]
	mov	BYTE PTR [eax+26], 101			; 00000065H
	mov	eax, DWORD PTR [esi+44]
	mov	eax, DWORD PTR [eax]
	mov	BYTE PTR [eax+27], 97			; 00000061H
	mov	eax, DWORD PTR [esi+44]
	mov	eax, DWORD PTR [eax]
	mov	BYTE PTR [eax+28], 109			; 0000006dH
	mov	eax, DWORD PTR [esi+44]
	mov	eax, DWORD PTR [eax]
	mov	BYTE PTR [eax+29], 33			; 00000021H
	mov	eax, DWORD PTR [esi+44]
	mov	eax, DWORD PTR [eax]
	mov	BYTE PTR [eax+30], bl
	mov	eax, DWORD PTR [esi+80]
	call	DWORD PTR [eax+12]
	mov	ecx, DWORD PTR [esi+48]
	mov	DWORD PTR [ecx], eax
; Line 103
	mov	eax, DWORD PTR [esi+48]
	mov	eax, DWORD PTR [eax]
	mov	BYTE PTR [eax], 100			; 00000064H
; Line 104
	mov	eax, DWORD PTR [esi+48]
	mov	eax, DWORD PTR [eax]
	mov	BYTE PTR [eax+1], 101			; 00000065H
; Line 105
	mov	eax, DWORD PTR [esi+48]
	mov	eax, DWORD PTR [eax]
	mov	BYTE PTR [eax+2], 99			; 00000063H
; Line 106
	mov	eax, DWORD PTR [esi+48]
	mov	eax, DWORD PTR [eax]
	mov	BYTE PTR [eax+3], 111			; 0000006fH
; Line 107
	mov	eax, DWORD PTR [esi+48]
	mov	eax, DWORD PTR [eax]
; Line 122
	push	8
	mov	BYTE PTR [eax+4], 109			; 0000006dH
	mov	eax, DWORD PTR [esi+48]
	mov	eax, DWORD PTR [eax]
	mov	BYTE PTR [eax+5], 112			; 00000070H
	mov	eax, DWORD PTR [esi+48]
	mov	eax, DWORD PTR [eax]
	mov	BYTE PTR [eax+6], 114			; 00000072H
	mov	eax, DWORD PTR [esi+48]
	mov	eax, DWORD PTR [eax]
	mov	BYTE PTR [eax+7], 101			; 00000065H
	mov	eax, DWORD PTR [esi+48]
	mov	eax, DWORD PTR [eax]
	mov	BYTE PTR [eax+8], 115			; 00000073H
	mov	eax, DWORD PTR [esi+48]
	mov	eax, DWORD PTR [eax]
	mov	BYTE PTR [eax+9], 115			; 00000073H
	mov	eax, DWORD PTR [esi+48]
	mov	eax, DWORD PTR [eax]
	mov	BYTE PTR [eax+10], 32			; 00000020H
	mov	eax, DWORD PTR [esi+48]
	mov	eax, DWORD PTR [eax]
	mov	BYTE PTR [eax+11], 115			; 00000073H
	mov	eax, DWORD PTR [esi+48]
	mov	eax, DWORD PTR [eax]
	mov	BYTE PTR [eax+12], 105			; 00000069H
	mov	eax, DWORD PTR [esi+48]
	mov	eax, DWORD PTR [eax]
	mov	BYTE PTR [eax+13], 122			; 0000007aH
	mov	eax, DWORD PTR [esi+48]
	mov	eax, DWORD PTR [eax]
	mov	BYTE PTR [eax+14], 101			; 00000065H
	mov	eax, DWORD PTR [esi+48]
	mov	eax, DWORD PTR [eax]
	mov	BYTE PTR [eax+15], 58			; 0000003aH
	mov	eax, DWORD PTR [esi+48]
	mov	eax, DWORD PTR [eax]
	mov	BYTE PTR [eax+16], bl
	mov	eax, DWORD PTR [esi+80]
	call	DWORD PTR [eax+12]
	mov	ecx, DWORD PTR [esi+52]
; Line 133
	push	8
	mov	DWORD PTR [ecx], eax
	mov	eax, DWORD PTR [esi+52]
	mov	eax, DWORD PTR [eax]
	mov	BYTE PTR [eax], 95			; 0000005fH
	mov	eax, DWORD PTR [esi+52]
	mov	eax, DWORD PTR [eax]
	mov	BYTE PTR [eax+1], 97			; 00000061H
	mov	eax, DWORD PTR [esi+52]
	mov	eax, DWORD PTR [eax]
	mov	BYTE PTR [eax+2], 99			; 00000063H
	mov	eax, DWORD PTR [esi+52]
	mov	eax, DWORD PTR [eax]
	mov	BYTE PTR [eax+3], 109			; 0000006dH
	mov	eax, DWORD PTR [esi+52]
	mov	eax, DWORD PTR [eax]
	mov	BYTE PTR [eax+4], 100			; 00000064H
	mov	eax, DWORD PTR [esi+52]
	mov	eax, DWORD PTR [eax]
	mov	BYTE PTR [eax+5], 108			; 0000006cH
	mov	eax, DWORD PTR [esi+52]
	mov	eax, DWORD PTR [eax]
	mov	BYTE PTR [eax+6], 110			; 0000006eH
	mov	eax, DWORD PTR [esi+52]
	mov	eax, DWORD PTR [eax]
	mov	BYTE PTR [eax+7], bl
	mov	eax, DWORD PTR [esi+80]
	call	DWORD PTR [eax+12]
	mov	ecx, DWORD PTR [esi+56]
	mov	DWORD PTR [ecx], eax
; Line 134
	mov	eax, DWORD PTR [esi+56]
	mov	eax, DWORD PTR [eax]
	mov	BYTE PTR [eax], 95			; 0000005fH
; Line 135
	mov	eax, DWORD PTR [esi+56]
	mov	eax, DWORD PTR [eax]
	mov	BYTE PTR [eax+1], 119			; 00000077H
; Line 136
	mov	eax, DWORD PTR [esi+56]
	mov	eax, DWORD PTR [eax]
	mov	BYTE PTR [eax+2], 99			; 00000063H
; Line 137
	mov	eax, DWORD PTR [esi+56]
; Line 144
	push	68					; 00000044H
	mov	eax, DWORD PTR [eax]
	mov	BYTE PTR [eax+3], 109			; 0000006dH
	mov	eax, DWORD PTR [esi+56]
	mov	eax, DWORD PTR [eax]
	mov	BYTE PTR [eax+4], 100			; 00000064H
	mov	eax, DWORD PTR [esi+56]
	mov	eax, DWORD PTR [eax]
	mov	BYTE PTR [eax+5], 108			; 0000006cH
	mov	eax, DWORD PTR [esi+56]
	mov	eax, DWORD PTR [eax]
	mov	BYTE PTR [eax+6], 110			; 0000006eH
	mov	eax, DWORD PTR [esi+56]
	mov	eax, DWORD PTR [eax]
	mov	BYTE PTR [eax+7], bl
	mov	eax, DWORD PTR [esi+80]
	call	DWORD PTR [eax+12]
	mov	ecx, DWORD PTR [esi+60]
	mov	DWORD PTR [ecx], eax
; Line 145
	mov	eax, DWORD PTR [esi+60]
	mov	eax, DWORD PTR [eax]
	mov	BYTE PTR [eax], 67			; 00000043H
; Line 146
	mov	eax, DWORD PTR [esi+60]
	mov	eax, DWORD PTR [eax]
	mov	BYTE PTR [eax+1], 58			; 0000003aH
; Line 147
	mov	eax, DWORD PTR [esi+60]
	mov	eax, DWORD PTR [eax]
	mov	BYTE PTR [eax+2], 92			; 0000005cH
; Line 148
	mov	eax, DWORD PTR [esi+60]
	mov	eax, DWORD PTR [eax]
	mov	BYTE PTR [eax+3], 85			; 00000055H
; Line 149
	mov	eax, DWORD PTR [esi+60]
	mov	eax, DWORD PTR [eax]
	mov	BYTE PTR [eax+4], 115			; 00000073H
; Line 150
	mov	eax, DWORD PTR [esi+60]
	mov	eax, DWORD PTR [eax]
	mov	BYTE PTR [eax+5], 101			; 00000065H
; Line 151
	mov	eax, DWORD PTR [esi+60]
	mov	eax, DWORD PTR [eax]
	mov	BYTE PTR [eax+6], 114			; 00000072H
; Line 152
	mov	eax, DWORD PTR [esi+60]
	mov	eax, DWORD PTR [eax]
	mov	BYTE PTR [eax+7], 115			; 00000073H
; Line 153
	mov	eax, DWORD PTR [esi+60]
	mov	eax, DWORD PTR [eax]
	mov	BYTE PTR [eax+8], 92			; 0000005cH
; Line 154
	mov	eax, DWORD PTR [esi+60]
	mov	eax, DWORD PTR [eax]
	mov	BYTE PTR [eax+9], 50			; 00000032H
; Line 155
	mov	eax, DWORD PTR [esi+60]
	mov	eax, DWORD PTR [eax]
	mov	BYTE PTR [eax+10], 51			; 00000033H
; Line 156
	mov	eax, DWORD PTR [esi+60]
	mov	eax, DWORD PTR [eax]
	mov	BYTE PTR [eax+11], 48			; 00000030H
; Line 157
	mov	eax, DWORD PTR [esi+60]
	mov	eax, DWORD PTR [eax]
	mov	BYTE PTR [eax+12], 51			; 00000033H
; Line 158
	mov	eax, DWORD PTR [esi+60]
	mov	eax, DWORD PTR [eax]
	mov	BYTE PTR [eax+13], 53			; 00000035H
; Line 159
	mov	eax, DWORD PTR [esi+60]
	mov	eax, DWORD PTR [eax]
	mov	BYTE PTR [eax+14], 92			; 0000005cH
; Line 160
	mov	eax, DWORD PTR [esi+60]
	mov	eax, DWORD PTR [eax]
	mov	BYTE PTR [eax+15], 68			; 00000044H
; Line 161
	mov	eax, DWORD PTR [esi+60]
	mov	eax, DWORD PTR [eax]
	mov	BYTE PTR [eax+16], 101			; 00000065H
; Line 162
	mov	eax, DWORD PTR [esi+60]
	mov	eax, DWORD PTR [eax]
	mov	BYTE PTR [eax+17], 115			; 00000073H
; Line 163
	mov	eax, DWORD PTR [esi+60]
	mov	eax, DWORD PTR [eax]
	mov	BYTE PTR [eax+18], 107			; 0000006bH
; Line 164
	mov	eax, DWORD PTR [esi+60]
	mov	eax, DWORD PTR [eax]
	mov	BYTE PTR [eax+19], 116			; 00000074H
; Line 165
	mov	eax, DWORD PTR [esi+60]
	mov	eax, DWORD PTR [eax]
	mov	BYTE PTR [eax+20], 111			; 0000006fH
; Line 166
	mov	eax, DWORD PTR [esi+60]
	mov	eax, DWORD PTR [eax]
	mov	BYTE PTR [eax+21], 112			; 00000070H
; Line 167
	mov	eax, DWORD PTR [esi+60]
	mov	eax, DWORD PTR [eax]
	mov	BYTE PTR [eax+22], 92			; 0000005cH
; Line 168
	mov	eax, DWORD PTR [esi+60]
	mov	eax, DWORD PTR [eax]
	mov	BYTE PTR [eax+23], 72			; 00000048H
; Line 169
	mov	eax, DWORD PTR [esi+60]
	mov	eax, DWORD PTR [eax]
	mov	BYTE PTR [eax+24], 111			; 0000006fH
; Line 170
	mov	eax, DWORD PTR [esi+60]
	mov	eax, DWORD PTR [eax]
	mov	BYTE PTR [eax+25], 109			; 0000006dH
; Line 171
	mov	eax, DWORD PTR [esi+60]
	mov	eax, DWORD PTR [eax]
	mov	BYTE PTR [eax+26], 101			; 00000065H
; Line 172
	mov	eax, DWORD PTR [esi+60]
	mov	eax, DWORD PTR [eax]
	mov	BYTE PTR [eax+27], 92			; 0000005cH
; Line 173
	mov	eax, DWORD PTR [esi+60]
	mov	eax, DWORD PTR [eax]
	mov	BYTE PTR [eax+28], 67			; 00000043H
; Line 174
	mov	eax, DWORD PTR [esi+60]
	mov	eax, DWORD PTR [eax]
	mov	BYTE PTR [eax+29], 43			; 0000002bH
; Line 175
	mov	eax, DWORD PTR [esi+60]
	mov	eax, DWORD PTR [eax]
	mov	BYTE PTR [eax+30], 43			; 0000002bH
; Line 176
	mov	eax, DWORD PTR [esi+60]
	mov	eax, DWORD PTR [eax]
	mov	BYTE PTR [eax+31], 92			; 0000005cH
; Line 177
	mov	eax, DWORD PTR [esi+60]
	mov	eax, DWORD PTR [eax]
	mov	BYTE PTR [eax+32], 65			; 00000041H
; Line 178
	mov	eax, DWORD PTR [esi+60]
	mov	eax, DWORD PTR [eax]
	mov	BYTE PTR [eax+33], 100			; 00000064H
; Line 179
	mov	eax, DWORD PTR [esi+60]
	mov	eax, DWORD PTR [eax]
	mov	BYTE PTR [eax+34], 100			; 00000064H
; Line 180
	mov	eax, DWORD PTR [esi+60]
	mov	eax, DWORD PTR [eax]
	mov	BYTE PTR [eax+35], 83			; 00000053H
; Line 181
	mov	eax, DWORD PTR [esi+60]
	mov	eax, DWORD PTR [eax]
	mov	BYTE PTR [eax+36], 104			; 00000068H
; Line 182
	mov	eax, DWORD PTR [esi+60]
	mov	eax, DWORD PTR [eax]
	mov	BYTE PTR [eax+37], 101			; 00000065H
; Line 183
	mov	eax, DWORD PTR [esi+60]
	mov	eax, DWORD PTR [eax]
	mov	BYTE PTR [eax+38], 108			; 0000006cH
; Line 184
	mov	eax, DWORD PTR [esi+60]
	mov	eax, DWORD PTR [eax]
	mov	BYTE PTR [eax+39], 108			; 0000006cH
; Line 185
	mov	eax, DWORD PTR [esi+60]
	mov	eax, DWORD PTR [eax]
	mov	BYTE PTR [eax+40], 92			; 0000005cH
; Line 186
	mov	eax, DWORD PTR [esi+60]
	mov	eax, DWORD PTR [eax]
	mov	BYTE PTR [eax+41], 68			; 00000044H
; Line 187
	mov	eax, DWORD PTR [esi+60]
	mov	eax, DWORD PTR [eax]
	mov	BYTE PTR [eax+42], 101			; 00000065H
; Line 188
	mov	eax, DWORD PTR [esi+60]
	mov	eax, DWORD PTR [eax]
	mov	BYTE PTR [eax+43], 98			; 00000062H
; Line 189
	mov	eax, DWORD PTR [esi+60]
	mov	eax, DWORD PTR [eax]
	mov	BYTE PTR [eax+44], 117			; 00000075H
; Line 190
	mov	eax, DWORD PTR [esi+60]
	mov	eax, DWORD PTR [eax]
	mov	BYTE PTR [eax+45], 103			; 00000067H
; Line 191
	mov	eax, DWORD PTR [esi+60]
	mov	eax, DWORD PTR [eax]
	mov	BYTE PTR [eax+46], 92			; 0000005cH
; Line 192
	mov	eax, DWORD PTR [esi+60]
	mov	eax, DWORD PTR [eax]
; Line 215
	push	18					; 00000012H
	mov	BYTE PTR [eax+47], 80			; 00000050H
	mov	eax, DWORD PTR [esi+60]
	mov	eax, DWORD PTR [eax]
	mov	BYTE PTR [eax+48], 114			; 00000072H
	mov	eax, DWORD PTR [esi+60]
	mov	eax, DWORD PTR [eax]
	mov	BYTE PTR [eax+49], 111			; 0000006fH
	mov	eax, DWORD PTR [esi+60]
	mov	eax, DWORD PTR [eax]
	mov	BYTE PTR [eax+50], 99			; 00000063H
	mov	eax, DWORD PTR [esi+60]
	mov	eax, DWORD PTR [eax]
	mov	BYTE PTR [eax+51], 101			; 00000065H
	mov	eax, DWORD PTR [esi+60]
	mov	eax, DWORD PTR [eax]
	mov	BYTE PTR [eax+52], 115			; 00000073H
	mov	eax, DWORD PTR [esi+60]
	mov	eax, DWORD PTR [eax]
	mov	BYTE PTR [eax+53], 115			; 00000073H
	mov	eax, DWORD PTR [esi+60]
	mov	eax, DWORD PTR [eax]
	mov	BYTE PTR [eax+54], 72			; 00000048H
	mov	eax, DWORD PTR [esi+60]
	mov	eax, DWORD PTR [eax]
	mov	BYTE PTR [eax+55], 111			; 0000006fH
	mov	eax, DWORD PTR [esi+60]
	mov	eax, DWORD PTR [eax]
	mov	BYTE PTR [eax+56], 108			; 0000006cH
	mov	eax, DWORD PTR [esi+60]
	mov	eax, DWORD PTR [eax]
	mov	BYTE PTR [eax+57], 108			; 0000006cH
	mov	eax, DWORD PTR [esi+60]
	mov	eax, DWORD PTR [eax]
	mov	BYTE PTR [eax+58], 111			; 0000006fH
	mov	eax, DWORD PTR [esi+60]
	mov	eax, DWORD PTR [eax]
	mov	BYTE PTR [eax+59], 119			; 00000077H
	mov	eax, DWORD PTR [esi+60]
	mov	eax, DWORD PTR [eax]
	mov	BYTE PTR [eax+60], 105			; 00000069H
	mov	eax, DWORD PTR [esi+60]
	mov	eax, DWORD PTR [eax]
	mov	BYTE PTR [eax+61], 110			; 0000006eH
	mov	eax, DWORD PTR [esi+60]
	mov	eax, DWORD PTR [eax]
	mov	BYTE PTR [eax+62], 103			; 00000067H
	mov	eax, DWORD PTR [esi+60]
	mov	eax, DWORD PTR [eax]
	mov	BYTE PTR [eax+63], 46			; 0000002eH
	mov	eax, DWORD PTR [esi+60]
	mov	eax, DWORD PTR [eax]
	mov	BYTE PTR [eax+64], 100			; 00000064H
	mov	eax, DWORD PTR [esi+60]
	mov	eax, DWORD PTR [eax]
	mov	BYTE PTR [eax+65], 108			; 0000006cH
	mov	eax, DWORD PTR [esi+60]
	mov	eax, DWORD PTR [eax]
	mov	BYTE PTR [eax+66], 108			; 0000006cH
	mov	eax, DWORD PTR [esi+60]
	mov	eax, DWORD PTR [eax]
	mov	BYTE PTR [eax+67], bl
	mov	eax, DWORD PTR [esi+80]
	call	DWORD PTR [eax+12]
	mov	ecx, DWORD PTR [esi+64]
	mov	DWORD PTR [ecx], eax
; Line 216
	mov	eax, DWORD PTR [esi+64]
	mov	eax, DWORD PTR [eax]
	mov	BYTE PTR [eax], 112			; 00000070H
; Line 217
	mov	eax, DWORD PTR [esi+64]
	mov	eax, DWORD PTR [eax]
	mov	BYTE PTR [eax+1], 114			; 00000072H
; Line 218
	mov	eax, DWORD PTR [esi+64]
	mov	eax, DWORD PTR [eax]
	mov	BYTE PTR [eax+2], 111			; 0000006fH
; Line 219
	mov	eax, DWORD PTR [esi+64]
	mov	eax, DWORD PTR [eax]
	mov	BYTE PTR [eax+3], 99			; 00000063H
; Line 220
	mov	eax, DWORD PTR [esi+64]
	mov	eax, DWORD PTR [eax]
	mov	BYTE PTR [eax+4], 101			; 00000065H
; Line 221
	mov	eax, DWORD PTR [esi+64]
; Line 236
	push	7
	mov	eax, DWORD PTR [eax]
	mov	BYTE PTR [eax+5], 115			; 00000073H
	mov	eax, DWORD PTR [esi+64]
	mov	eax, DWORD PTR [eax]
	mov	BYTE PTR [eax+6], 115			; 00000073H
	mov	eax, DWORD PTR [esi+64]
	mov	eax, DWORD PTR [eax]
	mov	BYTE PTR [eax+7], 95			; 0000005fH
	mov	eax, DWORD PTR [esi+64]
	mov	eax, DWORD PTR [eax]
	mov	BYTE PTR [eax+8], 104			; 00000068H
	mov	eax, DWORD PTR [esi+64]
	mov	eax, DWORD PTR [eax]
	mov	BYTE PTR [eax+9], 111			; 0000006fH
	mov	eax, DWORD PTR [esi+64]
	mov	eax, DWORD PTR [eax]
	mov	BYTE PTR [eax+10], 108			; 0000006cH
	mov	eax, DWORD PTR [esi+64]
	mov	eax, DWORD PTR [eax]
	mov	BYTE PTR [eax+11], 108			; 0000006cH
	mov	eax, DWORD PTR [esi+64]
	mov	eax, DWORD PTR [eax]
	mov	BYTE PTR [eax+12], 111			; 0000006fH
	mov	eax, DWORD PTR [esi+64]
	mov	eax, DWORD PTR [eax]
	mov	BYTE PTR [eax+13], 119			; 00000077H
	mov	eax, DWORD PTR [esi+64]
	mov	eax, DWORD PTR [eax]
	mov	BYTE PTR [eax+14], 105			; 00000069H
	mov	eax, DWORD PTR [esi+64]
	mov	eax, DWORD PTR [eax]
	mov	BYTE PTR [eax+15], 110			; 0000006eH
	mov	eax, DWORD PTR [esi+64]
	mov	eax, DWORD PTR [eax]
	mov	BYTE PTR [eax+16], 103			; 00000067H
	mov	eax, DWORD PTR [esi+64]
	mov	eax, DWORD PTR [eax]
	mov	BYTE PTR [eax+17], bl
	mov	eax, DWORD PTR [esi+80]
	call	DWORD PTR [eax+12]
	mov	ecx, DWORD PTR [esi+68]
	add	esp, 44					; 0000002cH
	mov	DWORD PTR [ecx], eax
; Line 237
	mov	eax, DWORD PTR [esi+68]
	mov	eax, DWORD PTR [eax]
	mov	BYTE PTR [eax], 46			; 0000002eH
; Line 238
	mov	eax, DWORD PTR [esi+68]
	mov	eax, DWORD PTR [eax]
	mov	BYTE PTR [eax+1], 114			; 00000072H
; Line 239
	mov	eax, DWORD PTR [esi+68]
	mov	eax, DWORD PTR [eax]
	mov	BYTE PTR [eax+2], 101			; 00000065H
; Line 240
	mov	eax, DWORD PTR [esi+68]
	mov	eax, DWORD PTR [eax]
	mov	BYTE PTR [eax+3], 108			; 0000006cH
; Line 241
	mov	eax, DWORD PTR [esi+68]
	mov	eax, DWORD PTR [eax]
	mov	BYTE PTR [eax+4], 111			; 0000006fH
; Line 242
	mov	eax, DWORD PTR [esi+68]
	mov	eax, DWORD PTR [eax]
	mov	BYTE PTR [eax+5], 99			; 00000063H
; Line 243
	mov	eax, DWORD PTR [esi+68]
	mov	eax, DWORD PTR [eax]
	mov	BYTE PTR [eax+6], bl
; Line 245
	mov	eax, esi
	pop	esi
	pop	ebx
	ret	4
??0workspace@@QAE@AAUmsvc@@@Z ENDP			; workspace::workspace
_TEXT	ENDS
END
